ccollections
defaultdict
p1
(c__builtin__
list
p2
tRp3
I2
(lp4
(lp5
S'a'
aS'cat'
p6
aa(lp7
S'a'
aS'bird'
p8
aa(lp9
S'a'
aS'pig'
p10
aa(lp11
S'dog'
p12
aS'world'
p13
aa(lp14
S'a'
aS'dog'
p15
aa(lp16
S'dog'
p17
aS'in'
p18
aasI3
(lp19
(lp20
S'a'
aS'tiger'
p21
aa(lp22
S'a'
aS'rabbit'
p23
aa(lp24
S'a'
aS'lion'
p25
aas.