ccollections
defaultdict
p1
(c__builtin__
list
p2
tRp3
I2
(lp4
(lp5
S'a'
aS'cat'
p6
aasI3
(lp7
(lp8
S'mouse'
p9
aS'liver'
p10
aa(lp11
S'a'
aS'rabbit'
p12
aa(lp13
S'a'
aS'burrow'
p14
aasI4
(lp15
(lp16
S'an'
p17
aS'animal'
p18
aa(lp19
S'an'
p20
aS'animal'
p21
aa(lp22
S'animal'
p23
aS'in'
p24
aasI5
(lp25
(lp26
S'only'
p27
aS'animal'
p28
aas.